; Function Attrs: mustprogress uwtable
define void @_ZN2pb11CppFeatures8CopyFromERKS0_(ptr noundef nonnull align 8 dereferenceable(32) %this, ptr noundef nonnull readonly align 8 dereferenceable(32) %from) local_unnamed_addr #3 align 2 {
entry:
  %cmp = icmp eq ptr %from, %this
  br i1 %cmp, label %return, label %if.end

if.end:                                           ; preds = %entry
  %0 = getelementptr inbounds i8, ptr %this, i64 16
  %legacy_closed_enum_.i = getelementptr inbounds i8, ptr %this, i64 24
  store i8 0, ptr %legacy_closed_enum_.i, align 8
  store i32 0, ptr %0, align 8
  %_internal_metadata_.i = getelementptr inbounds i8, ptr %this, i64 8
  %1 = load i64, ptr %_internal_metadata_.i, align 8
  %and.i.i = and i64 %1, 1
  %tobool.i.not.i = icmp eq i64 %and.i.i, 0
  br i1 %tobool.i.not.i, label %_ZN2pb11CppFeatures5ClearEv.exit, label %if.then.i.i

if.then.i.i:                                      ; preds = %if.end
  tail call void @_ZN6google8protobuf8internal16InternalMetadata7DoClearINS0_15UnknownFieldSetEEEvv(ptr noundef nonnull align 8 dereferenceable(8) %_internal_metadata_.i)
  br label %_ZN2pb11CppFeatures5ClearEv.exit

_ZN2pb11CppFeatures5ClearEv.exit:                 ; preds = %if.end, %if.then.i.i
  %2 = getelementptr inbounds i8, ptr %from, i64 16
  %3 = load i32, ptr %2, align 8
  %and.i.i2 = and i32 %3, 1
  %tobool.not.i.i = icmp eq i32 %and.i.i2, 0
  br i1 %tobool.not.i.i, label %if.end.i.i, label %if.then.i.i3

if.then.i.i3:                                     ; preds = %_ZN2pb11CppFeatures5ClearEv.exit
  %legacy_closed_enum_.i.i = getelementptr inbounds i8, ptr %from, i64 24
  %4 = load i8, ptr %legacy_closed_enum_.i.i, align 8
  %5 = and i8 %4, 1
  store i8 %5, ptr %legacy_closed_enum_.i, align 8
  br label %if.end.i.i

if.end.i.i:                                       ; preds = %if.then.i.i3, %_ZN2pb11CppFeatures5ClearEv.exit
  %6 = load i32, ptr %0, align 8
  %or.i.i = or i32 %6, %3
  store i32 %or.i.i, ptr %0, align 8
  %_internal_metadata_6.i.i = getelementptr inbounds i8, ptr %from, i64 8
  %7 = load i64, ptr %_internal_metadata_6.i.i, align 8
  %and.i18.i.i = and i64 %7, 1
  %tobool.i19.not.i.i = icmp eq i64 %and.i18.i.i, 0
  br i1 %tobool.i19.not.i.i, label %return, label %if.then.i.i.i.i

if.then.i.i.i.i:                                  ; preds = %if.end.i.i
  %and.i.i.i = and i64 %7, -2
  %8 = inttoptr i64 %and.i.i.i to ptr
  %unknown_fields.i.i.i.i = getelementptr inbounds i8, ptr %8, i64 8
  tail call void @_ZN6google8protobuf8internal16InternalMetadata11DoMergeFromINS0_15UnknownFieldSetEEEvRKT_(ptr noundef nonnull align 8 dereferenceable(8) %_internal_metadata_.i, ptr noundef nonnull align 8 dereferenceable(24) %unknown_fields.i.i.i.i)
  br label %return

return:                                           ; preds = %if.then.i.i.i.i, %if.end.i.i, %entry
  ret void
}